target datalayout = "e-m:e-p270:32:32-p271:32:32-p272:64:64-i64:64-i128:128-f80:128-n8:16:32:64-S128"
target triple = "x86_64-pc-linux-gnu"

%struct.DdNode = type { i32, i32, ptr, %union.anon, i64 }
%union.anon = type { %struct.DdChildren }
%struct.DdChildren = type { ptr, ptr }
%struct.DdManager = type { %struct.DdNode, ptr, ptr, ptr, ptr, ptr, ptr, ptr, i32, i32, double, double, double, i32, i32, i32, i32, i32, i32, ptr, ptr, %struct.DdSubtable, i32, i32, i32, i32, i32, i32, i32, double, i32, i32, i32, ptr, i64, double, i32, ptr, ptr, ptr, ptr, ptr, ptr, ptr, i32, ptr, ptr, ptr, ptr, ptr, ptr, i32, i32, i32, double, i32, i32, i32, i32, double, double, i32, i32, i32, i32, i32, i32, i32, i32, i32, ptr, ptr, i32, i32, i32, i32, i32, i32, ptr, ptr, ptr, ptr, ptr, ptr, ptr, ptr, i32, i64, i64, i64, i32, i64, i64, double, double, double, double, double, double, i32, ptr, ptr, i64 }
%struct.DdSubtable = type { ptr, i32, i32, i32, i32, i32, i32, i32, i32, i32, i32, i32 }

; Function Attrs: nounwind uwtable
define ptr @Cudd_Decreasing(ptr noundef %0, ptr noundef %1, i32 noundef %2) #0 {
  %4 = alloca ptr, align 8
  %5 = alloca ptr, align 8
  %6 = alloca ptr, align 8
  %7 = alloca i32, align 4
  %8 = alloca i32, align 4
  %9 = alloca i32, align 4
  %10 = alloca ptr, align 8
  %11 = alloca ptr, align 8
  %12 = alloca ptr, align 8
  %13 = alloca ptr, align 8
  %14 = alloca ptr, align 8
  %15 = alloca i32, align 4
  store ptr %0, ptr %5, align 8, !tbaa !3
  store ptr %1, ptr %6, align 8, !tbaa !8
  store i32 %2, ptr %7, align 4, !tbaa !12
  call void @llvm.lifetime.start.p0(i64 4, ptr %8) #6
  call void @llvm.lifetime.start.p0(i64 4, ptr %9) #6
  call void @llvm.lifetime.start.p0(i64 8, ptr %10) #6
  call void @llvm.lifetime.start.p0(i64 8, ptr %11) #6
  call void @llvm.lifetime.start.p0(i64 8, ptr %12) #6
  call void @llvm.lifetime.start.p0(i64 8, ptr %13) #6
  call void @llvm.lifetime.start.p0(i64 8, ptr %14) #6
  %16 = load ptr, ptr %6, align 8, !tbaa !8
  %17 = ptrtoint ptr %16 to i64
  %18 = and i64 %17, -2
  %19 = inttoptr i64 %18 to ptr
  store ptr %19, ptr %10, align 8, !tbaa !8
  %20 = load ptr, ptr %10, align 8, !tbaa !8
  %21 = getelementptr inbounds nuw %struct.DdNode, ptr %20, i32 0, i32 0
  %22 = load i32, ptr %21, align 8, !tbaa !14
  %23 = icmp eq i32 %22, 2147483647
  br i1 %23, label %24, label %28

24:                                               ; preds = %3
  %25 = load ptr, ptr %10, align 8, !tbaa !8
  %26 = getelementptr inbounds nuw %struct.DdNode, ptr %25, i32 0, i32 0
  %27 = load i32, ptr %26, align 8, !tbaa !14
  br label %38

28:                                               ; preds = %3
  %29 = load ptr, ptr %5, align 8, !tbaa !3
  %30 = getelementptr inbounds nuw %struct.DdManager, ptr %29, i32 0, i32 37
  %31 = load ptr, ptr %30, align 8, !tbaa !54
  %32 = load ptr, ptr %10, align 8, !tbaa !8
  %33 = getelementptr inbounds nuw %struct.DdNode, ptr %32, i32 0, i32 0
  %34 = load i32, ptr %33, align 8, !tbaa !14
  %35 = zext i32 %34 to i64
  %36 = getelementptr inbounds nuw i32, ptr %31, i64 %35
  %37 = load i32, ptr %36, align 4, !tbaa !12
  br label %38

38:                                               ; preds = %28, %24
  %39 = phi i32 [ %27, %24 ], [ %37, %28 ]
  store i32 %39, ptr %8, align 4, !tbaa !12
  %40 = load ptr, ptr %5, align 8, !tbaa !3
  %41 = getelementptr inbounds nuw %struct.DdManager, ptr %40, i32 0, i32 37
  %42 = load ptr, ptr %41, align 8, !tbaa !54
  %43 = load i32, ptr %7, align 4, !tbaa !12
  %44 = sext i32 %43 to i64
  %45 = getelementptr inbounds i32, ptr %42, i64 %44
  %46 = load i32, ptr %45, align 4, !tbaa !12
  store i32 %46, ptr %9, align 4, !tbaa !12
  %47 = load i32, ptr %8, align 4, !tbaa !12
  %48 = load i32, ptr %9, align 4, !tbaa !12
  %49 = icmp ugt i32 %47, %48
  br i1 %49, label %50, label %54

50:                                               ; preds = %38
  %51 = load ptr, ptr %5, align 8, !tbaa !3
  %52 = getelementptr inbounds nuw %struct.DdManager, ptr %51, i32 0, i32 1
  %53 = load ptr, ptr %52, align 8, !tbaa !20
  store ptr %53, ptr %4, align 8
  store i32 1, ptr %15, align 4
  br label %162

54:                                               ; preds = %38
  store ptr @Cudd_Decreasing, ptr %14, align 8, !tbaa !55
  %55 = load ptr, ptr %5, align 8, !tbaa !3
  %56 = load ptr, ptr %14, align 8, !tbaa !55
  %57 = load ptr, ptr %6, align 8, !tbaa !8
  %58 = load ptr, ptr %5, align 8, !tbaa !3
  %59 = getelementptr inbounds nuw %struct.DdManager, ptr %58, i32 0, i32 41
  %60 = load ptr, ptr %59, align 8, !tbaa !47
  %61 = load i32, ptr %7, align 4, !tbaa !12
  %62 = sext i32 %61 to i64
  %63 = getelementptr inbounds ptr, ptr %60, i64 %62
  %64 = load ptr, ptr %63, align 8, !tbaa !8
  %65 = call ptr @cuddCacheLookup2(ptr noundef %55, ptr noundef %56, ptr noundef %57, ptr noundef %64)
  store ptr %65, ptr %13, align 8, !tbaa !8
  %66 = load ptr, ptr %13, align 8, !tbaa !8
  %67 = icmp ne ptr %66, null
  br i1 %67, label %68, label %70

68:                                               ; preds = %54
  %69 = load ptr, ptr %13, align 8, !tbaa !8
  store ptr %69, ptr %4, align 8
  store i32 1, ptr %15, align 4
  br label %162

70:                                               ; preds = %54
  %71 = load ptr, ptr %10, align 8, !tbaa !8
  %72 = getelementptr inbounds nuw %struct.DdNode, ptr %71, i32 0, i32 3
  %73 = getelementptr inbounds nuw %struct.DdChildren, ptr %72, i32 0, i32 0
  %74 = load ptr, ptr %73, align 8, !tbaa !17
  store ptr %74, ptr %11, align 8, !tbaa !8
  %75 = load ptr, ptr %10, align 8, !tbaa !8
  %76 = getelementptr inbounds nuw %struct.DdNode, ptr %75, i32 0, i32 3
  %77 = getelementptr inbounds nuw %struct.DdChildren, ptr %76, i32 0, i32 1
  %78 = load ptr, ptr %77, align 8, !tbaa !17
  store ptr %78, ptr %12, align 8, !tbaa !8
  %79 = load ptr, ptr %10, align 8, !tbaa !8
  %80 = load ptr, ptr %6, align 8, !tbaa !8
  %81 = icmp ne ptr %79, %80
  br i1 %81, label %82, label %91

82:                                               ; preds = %70
  %83 = load ptr, ptr %11, align 8, !tbaa !8
  %84 = ptrtoint ptr %83 to i64
  %85 = xor i64 %84, 1
  %86 = inttoptr i64 %85 to ptr
  store ptr %86, ptr %11, align 8, !tbaa !8
  %87 = load ptr, ptr %12, align 8, !tbaa !8
  %88 = ptrtoint ptr %87 to i64
  %89 = xor i64 %88, 1
  %90 = inttoptr i64 %89 to ptr
  store ptr %90, ptr %12, align 8, !tbaa !8
  br label %91

91:                                               ; preds = %82, %70
  %92 = load i32, ptr %8, align 4, !tbaa !12
  %93 = load i32, ptr %9, align 4, !tbaa !12
  %94 = icmp eq i32 %92, %93
  br i1 %94, label %95, label %133

95:                                               ; preds = %91
  %96 = load ptr, ptr %11, align 8, !tbaa !8
  %97 = ptrtoint ptr %96 to i64
  %98 = and i64 %97, 1
  %99 = trunc i64 %98 to i32
  %100 = icmp ne i32 %99, 0
  br i1 %100, label %114, label %101

101:                                              ; preds = %95
  %102 = load ptr, ptr %12, align 8, !tbaa !8
  %103 = ptrtoint ptr %102 to i64
  %104 = and i64 %103, 1
  %105 = trunc i64 %104 to i32
  %106 = icmp ne i32 %105, 0
  br i1 %106, label %107, label %114

107:                                              ; preds = %101
  %108 = load ptr, ptr %5, align 8, !tbaa !3
  %109 = getelementptr inbounds nuw %struct.DdManager, ptr %108, i32 0, i32 1
  %110 = load ptr, ptr %109, align 8, !tbaa !20
  %111 = ptrtoint ptr %110 to i64
  %112 = xor i64 %111, 1
  %113 = inttoptr i64 %112 to ptr
  store ptr %113, ptr %4, align 8
  store i32 1, ptr %15, align 4
  br label %162

114:                                              ; preds = %101, %95
  %115 = load ptr, ptr %5, align 8, !tbaa !3
  %116 = load ptr, ptr %11, align 8, !tbaa !8
  %117 = load ptr, ptr %12, align 8, !tbaa !8
  %118 = call i32 @Cudd_bddLeq(ptr noundef %115, ptr noundef %116, ptr noundef %117)
  %119 = icmp ne i32 %118, 0
  br i1 %119, label %120, label %124

120:                                              ; preds = %114
  %121 = load ptr, ptr %5, align 8, !tbaa !3
  %122 = getelementptr inbounds nuw %struct.DdManager, ptr %121, i32 0, i32 1
  %123 = load ptr, ptr %122, align 8, !tbaa !20
  br label %131

124:                                              ; preds = %114
  %125 = load ptr, ptr %5, align 8, !tbaa !3
  %126 = getelementptr inbounds nuw %struct.DdManager, ptr %125, i32 0, i32 1
  %127 = load ptr, ptr %126, align 8, !tbaa !20
  %128 = ptrtoint ptr %127 to i64
  %129 = xor i64 %128, 1
  %130 = inttoptr i64 %129 to ptr
  br label %131

131:                                              ; preds = %124, %120
  %132 = phi ptr [ %123, %120 ], [ %130, %124 ]
  store ptr %132, ptr %13, align 8, !tbaa !8
  br label %149

133:                                              ; preds = %91
  %134 = load ptr, ptr %5, align 8, !tbaa !3
  %135 = load ptr, ptr %11, align 8, !tbaa !8
  %136 = load i32, ptr %7, align 4, !tbaa !12
  %137 = call ptr @Cudd_Decreasing(ptr noundef %134, ptr noundef %135, i32 noundef %136)
  store ptr %137, ptr %13, align 8, !tbaa !8
  %138 = load ptr, ptr %13, align 8, !tbaa !8
  %139 = load ptr, ptr %5, align 8, !tbaa !3
  %140 = getelementptr inbounds nuw %struct.DdManager, ptr %139, i32 0, i32 1
  %141 = load ptr, ptr %140, align 8, !tbaa !20
  %142 = icmp eq ptr %138, %141
  br i1 %142, label %143, label %148

143:                                              ; preds = %133
  %144 = load ptr, ptr %5, align 8, !tbaa !3
  %145 = load ptr, ptr %12, align 8, !tbaa !8
  %146 = load i32, ptr %7, align 4, !tbaa !12
  %147 = call ptr @Cudd_Decreasing(ptr noundef %144, ptr noundef %145, i32 noundef %146)
  store ptr %147, ptr %13, align 8, !tbaa !8
  br label %148

148:                                              ; preds = %143, %133
  br label %149

149:                                              ; preds = %148, %131
  %150 = load ptr, ptr %5, align 8, !tbaa !3
  %151 = load ptr, ptr %14, align 8, !tbaa !55
  %152 = load ptr, ptr %6, align 8, !tbaa !8
  %153 = load ptr, ptr %5, align 8, !tbaa !3
  %154 = getelementptr inbounds nuw %struct.DdManager, ptr %153, i32 0, i32 41
  %155 = load ptr, ptr %154, align 8, !tbaa !47
  %156 = load i32, ptr %7, align 4, !tbaa !12
  %157 = sext i32 %156 to i64
  %158 = getelementptr inbounds ptr, ptr %155, i64 %157
  %159 = load ptr, ptr %158, align 8, !tbaa !8
  %160 = load ptr, ptr %13, align 8, !tbaa !8
  call void @cuddCacheInsert2(ptr noundef %150, ptr noundef %151, ptr noundef %152, ptr noundef %159, ptr noundef %160)
  %161 = load ptr, ptr %13, align 8, !tbaa !8
  store ptr %161, ptr %4, align 8
  store i32 1, ptr %15, align 4
  br label %162

162:                                              ; preds = %149, %107, %68, %50
  call void @llvm.lifetime.end.p0(i64 8, ptr %14) #6
  call void @llvm.lifetime.end.p0(i64 8, ptr %13) #6
  call void @llvm.lifetime.end.p0(i64 8, ptr %12) #6
  call void @llvm.lifetime.end.p0(i64 8, ptr %11) #6
  call void @llvm.lifetime.end.p0(i64 8, ptr %10) #6
  call void @llvm.lifetime.end.p0(i64 4, ptr %9) #6
  call void @llvm.lifetime.end.p0(i64 4, ptr %8) #6
  %163 = load ptr, ptr %4, align 8
  ret ptr %163
}