; Function Attrs: nounwind uwtable
define ptr @Cudd_Decreasing(ptr noundef %0, ptr noundef %1, i32 noundef %2) #2 {
  %4 = ptrtoint ptr %1 to i64
  %5 = and i64 %4, -2
  %6 = inttoptr i64 %5 to ptr
  %7 = load i32, ptr %6, align 8, !tbaa !3
  %8 = icmp eq i32 %7, 2147483647
  %.phi.trans.insert = getelementptr inbounds nuw i8, ptr %0, i64 312
  %.pre = load ptr, ptr %.phi.trans.insert, align 8, !tbaa !47
  br i1 %8, label %._crit_edge, label %9

9:                                                ; preds = %3
  %10 = zext i32 %7 to i64
  %11 = getelementptr inbounds nuw i32, ptr %.pre, i64 %10
  %12 = load i32, ptr %11, align 4, !tbaa !11
  br label %._crit_edge

._crit_edge:                                      ; preds = %3, %9
  %13 = phi i32 [ %12, %9 ], [ 2147483647, %3 ]
  %14 = sext i32 %2 to i64
  %15 = getelementptr inbounds i32, ptr %.pre, i64 %14
  %16 = load i32, ptr %15, align 4, !tbaa !11
  %17 = icmp ugt i32 %13, %16
  br i1 %17, label %18, label %21

18:                                               ; preds = %._crit_edge
  %19 = getelementptr inbounds nuw i8, ptr %0, i64 40
  %20 = load ptr, ptr %19, align 8, !tbaa !15
  br label %69

21:                                               ; preds = %._crit_edge
  %22 = getelementptr inbounds nuw i8, ptr %0, i64 344
  %23 = load ptr, ptr %22, align 8, !tbaa !40
  %24 = getelementptr inbounds ptr, ptr %23, i64 %14
  %25 = load ptr, ptr %24, align 8, !tbaa !29
  %26 = tail call ptr @cuddCacheLookup2(ptr noundef nonnull %0, ptr noundef nonnull @Cudd_Decreasing, ptr noundef %1, ptr noundef %25) #10
  %.not = icmp eq ptr %26, null
  br i1 %.not, label %27, label %69

27:                                               ; preds = %21
  %28 = getelementptr inbounds nuw i8, ptr %6, i64 16
  %29 = load ptr, ptr %28, align 8, !tbaa !12
  %30 = getelementptr inbounds nuw i8, ptr %6, i64 24
  %31 = load ptr, ptr %30, align 8, !tbaa !12
  %.not56 = icmp eq ptr %1, %6
  %32 = ptrtoint ptr %29 to i64
  %33 = xor i64 %32, 1
  %34 = inttoptr i64 %33 to ptr
  %35 = ptrtoint ptr %31 to i64
  %36 = xor i64 %35, 1
  %37 = inttoptr i64 %36 to ptr
  %.050 = select i1 %.not56, ptr %29, ptr %34
  %.049 = select i1 %.not56, ptr %31, ptr %37
  %38 = icmp eq i32 %13, %16
  br i1 %38, label %39, label %58

39:                                               ; preds = %27
  %40 = ptrtoint ptr %.050 to i64
  %41 = and i64 %40, 1
  %.not57 = icmp ne i64 %41, 0
  %42 = ptrtoint ptr %.049 to i64
  %43 = and i64 %42, 1
  %.not58 = icmp eq i64 %43, 0
  %or.cond = select i1 %.not57, i1 true, i1 %.not58
  br i1 %or.cond, label %50, label %44

44:                                               ; preds = %39
  %45 = getelementptr inbounds nuw i8, ptr %0, i64 40
  %46 = load ptr, ptr %45, align 8, !tbaa !15
  %47 = ptrtoint ptr %46 to i64
  %48 = xor i64 %47, 1
  %49 = inttoptr i64 %48 to ptr
  br label %69

50:                                               ; preds = %39
  %51 = tail call i32 @Cudd_bddLeq(ptr noundef nonnull %0, ptr noundef %.050, ptr noundef %.049) #10
  %.not59 = icmp eq i32 %51, 0
  %52 = getelementptr inbounds nuw i8, ptr %0, i64 40
  %53 = load ptr, ptr %52, align 8, !tbaa !15
  br i1 %.not59, label %54, label %65

54:                                               ; preds = %50
  %55 = ptrtoint ptr %53 to i64
  %56 = xor i64 %55, 1
  %57 = inttoptr i64 %56 to ptr
  br label %65

58:                                               ; preds = %27
  %59 = tail call ptr @Cudd_Decreasing(ptr noundef nonnull %0, ptr noundef %.050, i32 noundef %2)
  %60 = getelementptr inbounds nuw i8, ptr %0, i64 40
  %61 = load ptr, ptr %60, align 8, !tbaa !15
  %62 = icmp eq ptr %59, %61
  br i1 %62, label %63, label %65

63:                                               ; preds = %58
  %64 = tail call ptr @Cudd_Decreasing(ptr noundef nonnull %0, ptr noundef %.049, i32 noundef %2)
  br label %65

65:                                               ; preds = %50, %54, %58, %63
  %.048 = phi ptr [ %64, %63 ], [ %59, %58 ], [ %57, %54 ], [ %53, %50 ]
  %66 = load ptr, ptr %22, align 8, !tbaa !40
  %67 = getelementptr inbounds ptr, ptr %66, i64 %14
  %68 = load ptr, ptr %67, align 8, !tbaa !29
  tail call void @cuddCacheInsert2(ptr noundef nonnull %0, ptr noundef nonnull @Cudd_Decreasing, ptr noundef %1, ptr noundef %68, ptr noundef %.048) #10
  br label %69

69:                                               ; preds = %21, %65, %44, %18
  %.0 = phi ptr [ %20, %18 ], [ %.048, %65 ], [ %49, %44 ], [ %26, %21 ]
  ret ptr %.0
}